target datalayout = "e-m:e-p270:32:32-p271:32:32-p272:64:64-i64:64-i128:128-f80:128-n8:16:32:64-S128"
target triple = "x86_64-pc-linux-gnu"

@.str.9 = private unnamed_addr constant [31 x i8] c"../openssl/test/fake_rsaprov.c\00", align 1
@.str.19 = private unnamed_addr constant [7 x i8] c"sigctx\00", align 1
@.str.23 = private unnamed_addr constant [8 x i8] c"*sigctx\00", align 1
@.str.24 = private unnamed_addr constant [2 x i8] c"1\00", align 1
@.str.25 = private unnamed_addr constant [8 x i8] c"sigsize\00", align 1
@.str.26 = private unnamed_addr constant [8 x i8] c"*siglen\00", align 1

; Function Attrs: nounwind uwtable
define internal i32 @fake_rsa_sig_sign(ptr noundef %0, ptr noundef %1, ptr noundef %2, i64 noundef %3, ptr noundef %4, i64 noundef %5) #0 {
  %7 = alloca i32, align 4
  %8 = alloca ptr, align 8
  %9 = alloca ptr, align 8
  %10 = alloca ptr, align 8
  %11 = alloca i64, align 8
  %12 = alloca ptr, align 8
  %13 = alloca i64, align 8
  %14 = alloca ptr, align 8
  %15 = alloca i32, align 4
  store ptr %0, ptr %8, align 8, !tbaa !19
  store ptr %1, ptr %9, align 8, !tbaa !22
  store ptr %2, ptr %10, align 8, !tbaa !31
  store i64 %3, ptr %11, align 8, !tbaa !33
  store ptr %4, ptr %12, align 8, !tbaa !22
  store i64 %5, ptr %13, align 8, !tbaa !33
  call void @llvm.lifetime.start.p0(i64 8, ptr %14) #6
  %16 = load ptr, ptr %8, align 8, !tbaa !19
  store ptr %16, ptr %14, align 8, !tbaa !22
  %17 = load ptr, ptr %14, align 8, !tbaa !22
  %18 = call i32 @test_ptr(ptr noundef @.str.9, i32 noundef 339, ptr noundef @.str.19, ptr noundef %17)
  %19 = icmp ne i32 %18, 0
  br i1 %19, label %20, label %26

20:                                               ; preds = %6
  %21 = load ptr, ptr %14, align 8, !tbaa !22
  %22 = load i8, ptr %21, align 1, !tbaa !30
  %23 = zext i8 %22 to i32
  %24 = call i32 @test_int_eq(ptr noundef @.str.9, i32 noundef 339, ptr noundef @.str.23, ptr noundef @.str.24, i32 noundef %23, i32 noundef 1)
  %25 = icmp ne i32 %24, 0
  br i1 %25, label %27, label %26

26:                                               ; preds = %20, %6
  store i32 0, ptr %7, align 4
  store i32 1, ptr %15, align 4
  br label %46

27:                                               ; preds = %20
  %28 = load ptr, ptr %10, align 8, !tbaa !31
  store i64 256, ptr %28, align 8, !tbaa !33
  %29 = load ptr, ptr %9, align 8, !tbaa !22
  %30 = icmp ne ptr %29, null
  br i1 %30, label %31, label %45

31:                                               ; preds = %27
  %32 = load i64, ptr %11, align 8, !tbaa !33
  %33 = trunc i64 %32 to i32
  %34 = load ptr, ptr %10, align 8, !tbaa !31
  %35 = load i64, ptr %34, align 8, !tbaa !33
  %36 = trunc i64 %35 to i32
  %37 = call i32 @test_int_ge(ptr noundef @.str.9, i32 noundef 345, ptr noundef @.str.25, ptr noundef @.str.26, i32 noundef %33, i32 noundef %36)
  %38 = icmp ne i32 %37, 0
  br i1 %38, label %40, label %39

39:                                               ; preds = %31
  store i32 0, ptr %7, align 4
  store i32 1, ptr %15, align 4
  br label %46

40:                                               ; preds = %31
  %41 = load ptr, ptr %14, align 8, !tbaa !22
  store i8 2, ptr %41, align 1, !tbaa !30
  %42 = load ptr, ptr %9, align 8, !tbaa !22
  %43 = load ptr, ptr %10, align 8, !tbaa !31
  %44 = load i64, ptr %43, align 8, !tbaa !33
  call void @llvm.memset.p0.i64(ptr align 1 %42, i8 97, i64 %44, i1 false)
  br label %45

45:                                               ; preds = %40, %27
  store i32 1, ptr %7, align 4
  store i32 1, ptr %15, align 4
  br label %46

46:                                               ; preds = %45, %39, %26
  call void @llvm.lifetime.end.p0(i64 8, ptr %14) #6
  %47 = load i32, ptr %7, align 4
  ret i32 %47
}