; Function Attrs: nounwind uwtable
define internal range(i32 0, 2) i32 @fake_rsa_sig_sign(ptr noundef %0, ptr noundef writeonly captures(address_is_null) %1, ptr noundef captures(none) %2, i64 noundef %3, ptr readnone captures(none) %4, i64 %5) #1 {
  %7 = tail call i32 @test_ptr(ptr noundef nonnull @.str.9, i32 noundef 339, ptr noundef nonnull @.str.19, ptr noundef %0) #12
  %.not = icmp eq i32 %7, 0
  br i1 %.not, label %18, label %8

8:                                                ; preds = %6
  %9 = load i8, ptr %0, align 1, !tbaa !14
  %10 = zext i8 %9 to i32
  %11 = tail call i32 @test_int_eq(ptr noundef nonnull @.str.9, i32 noundef 339, ptr noundef nonnull @.str.23, ptr noundef nonnull @.str.24, i32 noundef %10, i32 noundef 1) #12
  %.not11 = icmp eq i32 %11, 0
  br i1 %.not11, label %18, label %12

12:                                               ; preds = %8
  store i64 256, ptr %2, align 8, !tbaa !15
  %.not12 = icmp eq ptr %1, null
  br i1 %.not12, label %18, label %13

13:                                               ; preds = %12
  %14 = trunc i64 %3 to i32
  %15 = tail call i32 @test_int_ge(ptr noundef nonnull @.str.9, i32 noundef 345, ptr noundef nonnull @.str.25, ptr noundef nonnull @.str.26, i32 noundef %14, i32 noundef 256) #12
  %.not13 = icmp eq i32 %15, 0
  br i1 %.not13, label %18, label %16

16:                                               ; preds = %13
  store i8 2, ptr %0, align 1, !tbaa !14
  %17 = load i64, ptr %2, align 8, !tbaa !15
  tail call void @llvm.memset.p0.i64(ptr nonnull align 1 %1, i8 97, i64 %17, i1 false)
  br label %18

18:                                               ; preds = %12, %16, %13, %6, %8
  %.0 = phi i32 [ 0, %8 ], [ 0, %6 ], [ 0, %13 ], [ 1, %16 ], [ 1, %12 ]
  ret i32 %.0
}